target datalayout = "e-m:e-p270:32:32-p271:32:32-p272:64:64-i64:64-i128:128-f80:128-n8:16:32:64-S128"
target triple = "x86_64-pc-linux-gnu"

%struct.pm_parse_result_t = type { %struct.pm_parser, %struct.pm_options, %struct.pm_string_t, %struct.pm_scope_node, i8 }
%struct.pm_parser = type { i32, i32, i32, i32, i32, i32, i32, %struct.anon.33, ptr, ptr, %struct.pm_token_t, %struct.pm_token_t, ptr, ptr, %struct.pm_list_t, %struct.pm_list_t, %struct.pm_location_t, %struct.pm_list_t, %struct.pm_list_t, ptr, ptr, ptr, ptr, ptr, ptr, ptr, %struct.pm_string_t, %struct.pm_constant_pool_t, %struct.pm_newline_list_t, i16, %struct.pm_string_t, i32, ptr, ptr, i32, i8, i8, i8, i8, i8, i8, i8, i8, i8, i8, i8, i8, i8 }
%struct.anon.33 = type { ptr, [4 x %struct.pm_lex_mode], i64 }
%struct.pm_lex_mode = type { i32, %union.anon.34, ptr }
%union.anon.34 = type { %struct.anon.38 }
%struct.anon.38 = type { %struct.pm_heredoc_lex_mode_t, ptr, ptr, i8 }
%struct.pm_heredoc_lex_mode_t = type { ptr, i64, i32, i32 }
%struct.pm_token_t = type { i32, ptr, ptr }
%struct.pm_location_t = type { ptr, ptr }
%struct.pm_list_t = type { i64, ptr, ptr }
%struct.pm_constant_pool_t = type { ptr, ptr, i32, i32 }
%struct.pm_newline_list_t = type { ptr, i64, i64, ptr }
%struct.pm_options = type { ptr, ptr, %struct.pm_string_t, i32, %struct.pm_string_t, i64, ptr, i32, i8, i8, i8, i8, i8, i8 }
%struct.pm_string_t = type { ptr, i64, i32 }
%struct.pm_scope_node = type { %struct.pm_node, ptr, ptr, ptr, ptr, %struct.pm_constant_id_list_t, ptr, ptr, ptr, ptr, i32, ptr, ptr, i32, ptr }
%struct.pm_node = type { i16, i16, i32, %struct.pm_location_t }
%struct.pm_constant_id_list_t = type { i64, i64, ptr }
%struct.rb_vm_struct = type { i64, %struct.anon.21, ptr, i64, %struct.ccan_list_head, i32, i8, i64, ptr, [5 x i64], i64, i64, i64, i64, i64, i64, i64, i64, i64, ptr, ptr, ptr, %struct.anon.25, ptr, i32, %struct.ccan_list_head, %union.pthread_mutex_t, i64, i64, i64, i64, i32, %struct.anon.26, ptr, ptr, ptr, ptr, ptr, ptr, ptr, ptr, i64, [1023 x ptr], %struct.anon.27 }
%struct.anon.21 = type { %struct.ccan_list_head, i32, i32, ptr, ptr, %struct.anon.22, %struct.anon.24 }
%struct.anon.22 = type { %union.pthread_mutex_t, ptr, i32, %union.pthread_cond_t, i8 }
%union.pthread_cond_t = type { %struct.__pthread_cond_s }
%struct.__pthread_cond_s = type { %union.__atomic_wide_counter, %union.__atomic_wide_counter, [2 x i32], [2 x i32], i32, i32, [2 x i32] }
%union.__atomic_wide_counter = type { i64 }
%struct.anon.24 = type { %union.pthread_mutex_t, ptr, i8, %union.pthread_cond_t, i32, i32, i32, i32, %struct.ccan_list_head, i32, %struct.ccan_list_head, %struct.ccan_list_head, %struct.ccan_list_head, i8, %union.pthread_cond_t, %union.pthread_cond_t, i8, i32, i32 }
%struct.anon.25 = type { [65 x i64] }
%struct.ccan_list_head = type { %struct.ccan_list_node }
%struct.ccan_list_node = type { ptr, ptr }
%union.pthread_mutex_t = type { %struct.__pthread_mutex_s }
%struct.__pthread_mutex_s = type { i32, i32, i32, i32, i32, i16, i16, %struct.__pthread_internal_list }
%struct.__pthread_internal_list = type { ptr, ptr }
%struct.anon.26 = type { ptr, ptr }
%struct.anon.27 = type { i64, i64, i64, i64 }
%struct.rb_ast_struct = type { ptr, %struct.rb_ast_body_struct }
%struct.rb_ast_body_struct = type { ptr, ptr, i32, i8 }

@loaded_builtin_table = internal global ptr null, align 8
@.str.7 = private unnamed_addr constant [74 x i8] c"builtin_iseq_load: can not find %s; probably miniprelude.c is out of date\00", align 1
@builtin_iseq_load.optimization = internal constant { i8, i8, [2 x i8], i32 } { i8 123, i8 0, [2 x i8] zeroinitializer, i32 0 }, align 4
@ruby_current_vm_ptr = external global ptr, align 8

; Function Attrs: nounwind sspstrong uwtable
define internal void @builtin_loaded(ptr noundef %0, i64 noundef %1) #0 {
  %3 = alloca ptr, align 8
  %4 = alloca i64, align 8
  store ptr %0, ptr %3, align 8, !tbaa !11
  store i64 %1, ptr %4, align 8, !tbaa !7
  %5 = load ptr, ptr @loaded_builtin_table, align 8, !tbaa !50
  %6 = load ptr, ptr %3, align 8, !tbaa !11
  %7 = ptrtoint ptr %6 to i64
  %8 = load i64, ptr %4, align 8, !tbaa !7
  %9 = call i32 @rb_st_insert(ptr noundef %5, i64 noundef %7, i64 noundef %8)
  %10 = load i64, ptr %4, align 8, !tbaa !7
  call void @rb_vm_register_global_object(i64 noundef %10)
  ret void
}

; Function Attrs: nounwind sspstrong uwtable
define internal i64 @prelude_ast_value(i64 noundef %0, i64 noundef %1, i32 noundef %2) #0 {
  %4 = alloca i64, align 8
  %5 = alloca i64, align 8
  %6 = alloca i32, align 4
  %7 = alloca ptr, align 8
  %8 = alloca i64, align 8
  store i64 %0, ptr %4, align 8, !tbaa !7
  store i64 %1, ptr %5, align 8, !tbaa !7
  store i32 %2, ptr %6, align 4, !tbaa !18
  call void @llvm.lifetime.start.p0(i64 8, ptr %7) #9
  call void @llvm.lifetime.start.p0(i64 8, ptr %8) #9
  %9 = call i64 @rb_parser_new()
  %10 = load i64, ptr %4, align 8, !tbaa !7
  %11 = load i64, ptr %5, align 8, !tbaa !7
  %12 = load i32, ptr %6, align 4, !tbaa !18
  %13 = call i64 @rb_parser_compile_string_path(i64 noundef %9, i64 noundef %10, i64 noundef %11, i32 noundef %12)
  store i64 %13, ptr %8, align 8, !tbaa !7
  %14 = load i64, ptr %8, align 8, !tbaa !7
  %15 = call ptr @rb_ruby_ast_data_get(i64 noundef %14)
  store ptr %15, ptr %7, align 8, !tbaa !48
  %16 = load ptr, ptr %7, align 8, !tbaa !48
  %17 = icmp ne ptr %16, null
  br i1 %17, label %18, label %24

18:                                               ; preds = %3
  %19 = load ptr, ptr %7, align 8, !tbaa !48
  %20 = getelementptr inbounds nuw %struct.rb_ast_struct, ptr %19, i32 0, i32 1
  %21 = getelementptr inbounds nuw %struct.rb_ast_body_struct, ptr %20, i32 0, i32 0
  %22 = load ptr, ptr %21, align 8, !tbaa !52
  %23 = icmp ne ptr %22, null
  br i1 %23, label %31, label %24

24:                                               ; preds = %18, %3
  %25 = load ptr, ptr %7, align 8, !tbaa !48
  %26 = icmp ne ptr %25, null
  br i1 %26, label %27, label %29

27:                                               ; preds = %24
  %28 = load ptr, ptr %7, align 8, !tbaa !48
  call void @rb_ast_dispose(ptr noundef %28)
  br label %29

29:                                               ; preds = %27, %24
  %30 = call i64 @rb_errinfo()
  call void @rb_exc_raise(i64 noundef %30) #11
  unreachable

31:                                               ; preds = %18
  %32 = load i64, ptr %8, align 8, !tbaa !7
  call void @llvm.lifetime.end.p0(i64 8, ptr %8) #9
  call void @llvm.lifetime.end.p0(i64 8, ptr %7) #9
  ret i64 %32
}

; Function Attrs: nounwind sspstrong uwtable
define internal void @pm_prelude_load(ptr noundef %0, i64 noundef %1, i64 noundef %2, i32 noundef %3) #0 {
  %5 = alloca ptr, align 8
  %6 = alloca i64, align 8
  %7 = alloca i64, align 8
  %8 = alloca i32, align 4
  %9 = alloca i64, align 8
  store ptr %0, ptr %5, align 8, !tbaa !51
  store i64 %1, ptr %6, align 8, !tbaa !7
  store i64 %2, ptr %7, align 8, !tbaa !7
  store i32 %3, ptr %8, align 4, !tbaa !18
  %10 = load ptr, ptr %5, align 8, !tbaa !51
  %11 = getelementptr inbounds nuw %struct.pm_parse_result_t, ptr %10, i32 0, i32 1
  %12 = load i32, ptr %8, align 4, !tbaa !18
  call void @pm_options_line_set(ptr noundef %11, i32 noundef %12)
  call void @llvm.lifetime.start.p0(i64 8, ptr %9) #9
  %13 = load ptr, ptr %5, align 8, !tbaa !51
  %14 = load i64, ptr %7, align 8, !tbaa !7
  %15 = load i64, ptr %6, align 8, !tbaa !7
  %16 = call i64 @pm_parse_string(ptr noundef %13, i64 noundef %14, i64 noundef %15, ptr noundef null)
  store i64 %16, ptr %9, align 8, !tbaa !7
  %17 = load i64, ptr %9, align 8, !tbaa !7
  %18 = call zeroext i1 @RB_NIL_P(i64 noundef %17) #10
  br i1 %18, label %22, label %19

19:                                               ; preds = %4
  %20 = load ptr, ptr %5, align 8, !tbaa !51
  call void @pm_parse_result_free(ptr noundef %20)
  %21 = load i64, ptr %9, align 8, !tbaa !7
  call void @rb_exc_raise(i64 noundef %21) #11
  unreachable

22:                                               ; preds = %4
  call void @llvm.lifetime.end.p0(i64 8, ptr %9) #9
  ret void
}

; Function Attrs: inlinehint nounwind sspstrong uwtable
define internal ptr @rb_current_vm() #6 {
  %1 = load ptr, ptr @ruby_current_vm_ptr, align 8, !tbaa !24
  ret ptr %1
}

; Function Attrs: inlinehint nounwind sspstrong willreturn memory(none) uwtable
define internal zeroext i1 @RB_NIL_P(i64 noundef %0) #4 {
  %2 = alloca i64, align 8
  store i64 %0, ptr %2, align 8, !tbaa !7
  %3 = load i64, ptr %2, align 8, !tbaa !7
  %4 = icmp eq i64 %3, 4
  ret i1 %4
}

; Function Attrs: nounwind sspstrong uwtable
define internal ptr @builtin_iseq_load(ptr noundef %0, ptr noundef %1) #0 {
  %3 = alloca ptr, align 8
  %4 = alloca ptr, align 8
  %5 = alloca i64, align 8
  %6 = alloca i32, align 4
  %7 = alloca ptr, align 8
  %8 = alloca i64, align 8
  %9 = alloca ptr, align 8
  %10 = alloca %struct.pm_parse_result_t, align 8
  %11 = alloca i32, align 4
  %12 = alloca i64, align 8
  %13 = alloca ptr, align 8
  store ptr %0, ptr %3, align 8, !tbaa !11
  store ptr %1, ptr %4, align 8, !tbaa !20
  call void @llvm.lifetime.start.p0(i64 8, ptr %5) #9
  store i64 0, ptr %5, align 8, !tbaa !7
  call void @llvm.lifetime.start.p0(i64 4, ptr %6) #9
  call void @llvm.lifetime.start.p0(i64 8, ptr %7) #9
  call void @llvm.lifetime.start.p0(i64 8, ptr %8) #9
  %14 = load ptr, ptr %3, align 8, !tbaa !11
  %15 = call i64 @rb_builtin_find(ptr noundef %14, ptr noundef %5, ptr noundef %6)
  store i64 %15, ptr %8, align 8, !tbaa !7
  %16 = load i64, ptr %8, align 8, !tbaa !7
  %17 = call zeroext i1 @RB_NIL_P(i64 noundef %16) #10
  br i1 %17, label %18, label %20

18:                                               ; preds = %2
  %19 = load ptr, ptr %3, align 8, !tbaa !11
  call void (ptr, ...) @rb_fatal(ptr noundef @.str.7, ptr noundef %19) #11
  unreachable

20:                                               ; preds = %2
  call void @llvm.lifetime.start.p0(i64 8, ptr %9) #9
  %21 = call ptr @rb_current_vm()
  store ptr %21, ptr %9, align 8, !tbaa !24
  %22 = call i32 @rb_ruby_default_parser()
  %23 = icmp eq i32 %22, 1
  br i1 %23, label %24, label %42

24:                                               ; preds = %20
  call void @llvm.lifetime.start.p0(i64 1000, ptr %10) #9
  call void @llvm.memset.p0.i64(ptr align 8 %10, i8 0, i64 1000, i1 false)
  %25 = load i64, ptr %5, align 8, !tbaa !7
  %26 = load i64, ptr %8, align 8, !tbaa !7
  %27 = load i32, ptr %6, align 4, !tbaa !18
  call void @pm_prelude_load(ptr noundef %10, i64 noundef %25, i64 noundef %26, i32 noundef %27)
  %28 = load ptr, ptr %4, align 8, !tbaa !20
  %29 = load ptr, ptr %9, align 8, !tbaa !24
  %30 = getelementptr inbounds nuw %struct.rb_vm_struct, ptr %29, i32 0, i32 35
  store ptr %28, ptr %30, align 8, !tbaa !26
  call void @llvm.lifetime.start.p0(i64 4, ptr %11) #9
  %31 = getelementptr inbounds nuw %struct.pm_parse_result_t, ptr %10, i32 0, i32 3
  %32 = load i64, ptr %5, align 8, !tbaa !7
  %33 = load i64, ptr %5, align 8, !tbaa !7
  %34 = call ptr @pm_iseq_new_with_opt(ptr noundef %31, i64 noundef %32, i64 noundef %33, i64 noundef 4, i32 noundef 0, ptr noundef null, i32 noundef 0, i32 noundef 0, ptr noundef @builtin_iseq_load.optimization, ptr noundef %11)
  store ptr %34, ptr %7, align 8, !tbaa !22
  %35 = load ptr, ptr %9, align 8, !tbaa !24
  %36 = getelementptr inbounds nuw %struct.rb_vm_struct, ptr %35, i32 0, i32 35
  store ptr null, ptr %36, align 8, !tbaa !26
  call void @pm_parse_result_free(ptr noundef %10)
  %37 = load i32, ptr %11, align 4, !tbaa !18
  %38 = icmp ne i32 %37, 0
  br i1 %38, label %39, label %41

39:                                               ; preds = %24
  %40 = load i32, ptr %11, align 4, !tbaa !18
  call void @rb_jump_tag(i32 noundef %40) #11
  unreachable

41:                                               ; preds = %24
  call void @llvm.lifetime.end.p0(i64 4, ptr %11) #9
  call void @llvm.lifetime.end.p0(i64 1000, ptr %10) #9
  br label %59

42:                                               ; preds = %20
  call void @llvm.lifetime.start.p0(i64 8, ptr %12) #9
  %43 = load i64, ptr %5, align 8, !tbaa !7
  %44 = load i64, ptr %8, align 8, !tbaa !7
  %45 = load i32, ptr %6, align 4, !tbaa !18
  %46 = call i64 @prelude_ast_value(i64 noundef %43, i64 noundef %44, i32 noundef %45)
  store i64 %46, ptr %12, align 8, !tbaa !7
  call void @llvm.lifetime.start.p0(i64 8, ptr %13) #9
  %47 = load i64, ptr %12, align 8, !tbaa !7
  %48 = call ptr @rb_ruby_ast_data_get(i64 noundef %47)
  store ptr %48, ptr %13, align 8, !tbaa !48
  %49 = load ptr, ptr %4, align 8, !tbaa !20
  %50 = load ptr, ptr %9, align 8, !tbaa !24
  %51 = getelementptr inbounds nuw %struct.rb_vm_struct, ptr %50, i32 0, i32 35
  store ptr %49, ptr %51, align 8, !tbaa !26
  %52 = load i64, ptr %12, align 8, !tbaa !7
  %53 = load i64, ptr %5, align 8, !tbaa !7
  %54 = load i64, ptr %5, align 8, !tbaa !7
  %55 = call ptr @rb_iseq_new_with_opt(i64 noundef %52, i64 noundef %53, i64 noundef %54, i64 noundef 4, i32 noundef 0, ptr noundef null, i32 noundef 0, i32 noundef 0, ptr noundef @builtin_iseq_load.optimization, i64 noundef 4)
  store ptr %55, ptr %7, align 8, !tbaa !22
  %56 = load ptr, ptr %9, align 8, !tbaa !24
  %57 = getelementptr inbounds nuw %struct.rb_vm_struct, ptr %56, i32 0, i32 35
  store ptr null, ptr %57, align 8, !tbaa !26
  %58 = load ptr, ptr %13, align 8, !tbaa !48
  call void @rb_ast_dispose(ptr noundef %58)
  call void @llvm.lifetime.end.p0(i64 8, ptr %13) #9
  call void @llvm.lifetime.end.p0(i64 8, ptr %12) #9
  br label %59

59:                                               ; preds = %42, %41
  %60 = load ptr, ptr %3, align 8, !tbaa !11
  %61 = load ptr, ptr %7, align 8, !tbaa !22
  %62 = ptrtoint ptr %61 to i64
  call void @builtin_loaded(ptr noundef %60, i64 noundef %62)
  %63 = load ptr, ptr %7, align 8, !tbaa !22
  call void @llvm.lifetime.end.p0(i64 8, ptr %9) #9
  call void @llvm.lifetime.end.p0(i64 8, ptr %8) #9
  call void @llvm.lifetime.end.p0(i64 8, ptr %7) #9
  call void @llvm.lifetime.end.p0(i64 4, ptr %6) #9
  call void @llvm.lifetime.end.p0(i64 8, ptr %5) #9
  ret ptr %63
}