; Function Attrs: nounwind sspstrong uwtable
define internal fastcc ptr @builtin_iseq_load(ptr noundef %0, ptr noundef %1) unnamed_addr #1 {
  %3 = alloca i64, align 8
  %4 = alloca i32, align 4
  %5 = alloca %struct.pm_parse_result_t, align 8
  %6 = alloca i32, align 4
  call void @llvm.lifetime.start.p0(i64 8, ptr nonnull %3) #8
  store i64 0, ptr %3, align 8, !tbaa !7
  call void @llvm.lifetime.start.p0(i64 4, ptr nonnull %4) #8
  %7 = call i64 @rb_builtin_find(ptr noundef %0, ptr noundef nonnull %3, ptr noundef nonnull %4)
  %8 = icmp eq i64 %7, 4
  br i1 %8, label %9, label %10

9:                                                ; preds = %2
  tail call void (ptr, ...) @rb_fatal(ptr noundef nonnull @.str.7, ptr noundef %0) #10
  unreachable

10:                                               ; preds = %2
  %11 = load ptr, ptr @ruby_current_vm_ptr, align 8, !tbaa !13
  %12 = tail call i32 @rb_ruby_default_parser() #8
  %13 = icmp eq i32 %12, 1
  br i1 %13, label %14, label %27

14:                                               ; preds = %10
  call void @llvm.lifetime.start.p0(i64 1000, ptr nonnull %5) #8
  call void @llvm.memset.p0.i64(ptr noundef nonnull align 8 dereferenceable(1000) %5, i8 0, i64 1000, i1 false)
  %15 = load i64, ptr %3, align 8, !tbaa !7
  %16 = load i32, ptr %4, align 4, !tbaa !11
  %17 = getelementptr inbounds nuw i8, ptr %5, i64 712
  call void @pm_options_line_set(ptr noundef nonnull %17, i32 noundef %16) #8
  %18 = call i64 @pm_parse_string(ptr noundef nonnull %5, i64 noundef %7, i64 noundef %15, ptr noundef null) #8
  %19 = icmp eq i64 %18, 4
  br i1 %19, label %pm_prelude_load.exit, label %20

20:                                               ; preds = %14
  call void @pm_parse_result_free(ptr noundef nonnull %5) #8
  call void @rb_exc_raise(i64 noundef %18) #10
  unreachable

pm_prelude_load.exit:                             ; preds = %14
  %21 = getelementptr inbounds nuw i8, ptr %11, i64 1328
  store ptr %1, ptr %21, align 8, !tbaa !16
  call void @llvm.lifetime.start.p0(i64 4, ptr nonnull %6) #8
  %22 = getelementptr inbounds nuw i8, ptr %5, i64 840
  %23 = call ptr @pm_iseq_new_with_opt(ptr noundef nonnull %22, i64 noundef %15, i64 noundef %15, i64 noundef 4, i32 noundef 0, ptr noundef null, i32 noundef 0, i32 noundef 0, ptr noundef nonnull @builtin_iseq_load.optimization, ptr noundef nonnull %6) #8
  store ptr null, ptr %21, align 8, !tbaa !16
  call void @pm_parse_result_free(ptr noundef nonnull %5) #8
  %24 = load i32, ptr %6, align 4, !tbaa !11
  %.not = icmp eq i32 %24, 0
  br i1 %.not, label %26, label %25

25:                                               ; preds = %pm_prelude_load.exit
  call void @rb_jump_tag(i32 noundef %24) #10
  unreachable

26:                                               ; preds = %pm_prelude_load.exit
  call void @llvm.lifetime.end.p0(i64 4, ptr nonnull %6) #8
  call void @llvm.lifetime.end.p0(i64 1000, ptr nonnull %5) #8
  br label %41

27:                                               ; preds = %10
  %28 = load i64, ptr %3, align 8, !tbaa !7
  %29 = load i32, ptr %4, align 4, !tbaa !11
  %30 = tail call i64 @rb_parser_new() #8
  %31 = tail call i64 @rb_parser_compile_string_path(i64 noundef %30, i64 noundef %28, i64 noundef %7, i32 noundef %29) #8
  %32 = tail call ptr @rb_ruby_ast_data_get(i64 noundef %31) #8
  %.not.i = icmp eq ptr %32, null
  br i1 %.not.i, label %.critedge.i, label %33

33:                                               ; preds = %27
  %34 = getelementptr inbounds nuw i8, ptr %32, i64 8
  %35 = load ptr, ptr %34, align 8, !tbaa !39
  %.not8.i = icmp eq ptr %35, null
  br i1 %.not8.i, label %36, label %prelude_ast_value.exit

36:                                               ; preds = %33
  tail call void @rb_ast_dispose(ptr noundef nonnull %32) #8
  br label %.critedge.i

.critedge.i:                                      ; preds = %36, %27
  %37 = tail call i64 @rb_errinfo() #8
  tail call void @rb_exc_raise(i64 noundef %37) #10
  unreachable

prelude_ast_value.exit:                           ; preds = %33
  %38 = tail call ptr @rb_ruby_ast_data_get(i64 noundef %31) #8
  %39 = getelementptr inbounds nuw i8, ptr %11, i64 1328
  store ptr %1, ptr %39, align 8, !tbaa !16
  %40 = tail call ptr @rb_iseq_new_with_opt(i64 noundef %31, i64 noundef %28, i64 noundef %28, i64 noundef 4, i32 noundef 0, ptr noundef null, i32 noundef 0, i32 noundef 0, ptr noundef nonnull @builtin_iseq_load.optimization, i64 noundef 4) #8
  store ptr null, ptr %39, align 8, !tbaa !16
  tail call void @rb_ast_dispose(ptr noundef %38) #8
  br label %41

41:                                               ; preds = %prelude_ast_value.exit, %26
  %.0 = phi ptr [ %23, %26 ], [ %40, %prelude_ast_value.exit ]
  %42 = ptrtoint ptr %.0 to i64
  %43 = load ptr, ptr @loaded_builtin_table, align 8, !tbaa !45
  %44 = ptrtoint ptr %0 to i64
  %45 = call i32 @rb_st_insert(ptr noundef %43, i64 noundef %44, i64 noundef %42) #8
  call void @rb_vm_register_global_object(i64 noundef %42) #8
  call void @llvm.lifetime.end.p0(i64 4, ptr nonnull %4) #8
  call void @llvm.lifetime.end.p0(i64 8, ptr nonnull %3) #8
  ret ptr %.0
}